target datalayout = "e-m:e-p270:32:32-p271:32:32-p272:64:64-i64:64-i128:128-f80:128-n8:16:32:64-S128"
target triple = "x86_64-pc-linux-gnu"

%struct.hm_header_st = type { i8, i32, i16, i32, i32, i32, i16 }
%struct.ssl_st = type { i32, i16, i16, ptr, ptr, ptr, ptr, ptr, i32, i32, ptr, ptr, i32, i32, ptr, ptr, ptr, ptr, ptr, ptr, ptr, ptr, i32, i32, [32 x i8], ptr, ptr, ptr, ptr, ptr, ptr, ptr, i64, %struct.crypto_ex_data_st, ptr, i32, i32, i32, i32, i16, ptr, i32, i64, ptr, ptr, ptr, ptr, ptr, ptr, i32, i32, ptr, ptr, i8, i8, i32 }
%struct.crypto_ex_data_st = type { ptr }
%struct.dtls1_state_st = type { i32, [256 x i8], i64, i16, i16, %struct.dtls1_bitmap_st, i16, i16, i16, [8 x i8], ptr, ptr, i32, %struct.hm_header_st, i32, %struct.timeval, i16 }
%struct.dtls1_bitmap_st = type { i64, i64 }
%struct.timeval = type { i64, i64 }

; Function Attrs: nounwind uwtable
define hidden i32 @dtls1_min_mtu() #0 {
  ret i32 228
}

; Function Attrs: nounwind uwtable
define internal void @dtls1_update_mtu(ptr noundef %0) #0 {
  %2 = alloca ptr, align 8
  %3 = alloca i64, align 8
  store ptr %0, ptr %2, align 8, !tbaa !18
  %4 = load ptr, ptr %2, align 8, !tbaa !18
  %5 = getelementptr inbounds nuw %struct.ssl_st, ptr %4, i32 0, i32 15
  %6 = load ptr, ptr %5, align 8, !tbaa !21
  %7 = getelementptr inbounds nuw %struct.dtls1_state_st, ptr %6, i32 0, i32 12
  %8 = load i32, ptr %7, align 8, !tbaa !44
  %9 = call i32 @dtls1_min_mtu()
  %10 = icmp ult i32 %8, %9
  br i1 %10, label %11, label %53

11:                                               ; preds = %1
  %12 = load ptr, ptr %2, align 8, !tbaa !18
  %13 = call i32 @SSL_get_options(ptr noundef %12)
  %14 = zext i32 %13 to i64
  %15 = and i64 %14, 4096
  %16 = icmp ne i64 %15, 0
  br i1 %16, label %53, label %17

17:                                               ; preds = %11
  call void @llvm.lifetime.start.p0(i64 8, ptr %3) #8
  %18 = load ptr, ptr %2, align 8, !tbaa !18
  %19 = call ptr @SSL_get_wbio(ptr noundef %18)
  %20 = call i64 @BIO_ctrl(ptr noundef %19, i32 noundef 40, i64 noundef 0, ptr noundef null)
  store i64 %20, ptr %3, align 8, !tbaa !53
  %21 = load i64, ptr %3, align 8, !tbaa !53
  %22 = icmp sge i64 %21, 0
  br i1 %22, label %23, label %38

23:                                               ; preds = %17
  %24 = load i64, ptr %3, align 8, !tbaa !53
  %25 = icmp sle i64 %24, 1073741824
  br i1 %25, label %26, label %38

26:                                               ; preds = %23
  %27 = load i64, ptr %3, align 8, !tbaa !53
  %28 = trunc i64 %27 to i32
  %29 = call i32 @dtls1_min_mtu()
  %30 = icmp uge i32 %28, %29
  br i1 %30, label %31, label %38

31:                                               ; preds = %26
  %32 = load i64, ptr %3, align 8, !tbaa !53
  %33 = trunc i64 %32 to i32
  %34 = load ptr, ptr %2, align 8, !tbaa !18
  %35 = getelementptr inbounds nuw %struct.ssl_st, ptr %34, i32 0, i32 15
  %36 = load ptr, ptr %35, align 8, !tbaa !21
  %37 = getelementptr inbounds nuw %struct.dtls1_state_st, ptr %36, i32 0, i32 12
  store i32 %33, ptr %37, align 8, !tbaa !44
  br label %52

38:                                               ; preds = %26, %23, %17
  %39 = load ptr, ptr %2, align 8, !tbaa !18
  %40 = getelementptr inbounds nuw %struct.ssl_st, ptr %39, i32 0, i32 15
  %41 = load ptr, ptr %40, align 8, !tbaa !21
  %42 = getelementptr inbounds nuw %struct.dtls1_state_st, ptr %41, i32 0, i32 12
  store i32 1472, ptr %42, align 8, !tbaa !44
  %43 = load ptr, ptr %2, align 8, !tbaa !18
  %44 = call ptr @SSL_get_wbio(ptr noundef %43)
  %45 = load ptr, ptr %2, align 8, !tbaa !18
  %46 = getelementptr inbounds nuw %struct.ssl_st, ptr %45, i32 0, i32 15
  %47 = load ptr, ptr %46, align 8, !tbaa !21
  %48 = getelementptr inbounds nuw %struct.dtls1_state_st, ptr %47, i32 0, i32 12
  %49 = load i32, ptr %48, align 8, !tbaa !44
  %50 = zext i32 %49 to i64
  %51 = call i64 @BIO_ctrl(ptr noundef %44, i32 noundef 42, i64 noundef %50, ptr noundef null)
  br label %52

52:                                               ; preds = %38, %31
  call void @llvm.lifetime.end.p0(i64 8, ptr %3) #8
  br label %53

53:                                               ; preds = %52, %11, %1
  ret void
}