; Function Attrs: nounwind uwtable
define internal fastcc void @dtls1_update_mtu(ptr noundef %0) unnamed_addr #2 {
  %2 = getelementptr inbounds nuw i8, ptr %0, i64 88
  %3 = load ptr, ptr %2, align 8, !tbaa !16
  %4 = getelementptr inbounds nuw i8, ptr %3, i64 328
  %5 = load i32, ptr %4, align 8, !tbaa !39
  %6 = icmp ult i32 %5, 228
  br i1 %6, label %7, label %27

7:                                                ; preds = %1
  %8 = tail call i32 @SSL_get_options(ptr noundef nonnull %0) #13
  %9 = and i32 %8, 4096
  %.not = icmp eq i32 %9, 0
  br i1 %.not, label %10, label %27

10:                                               ; preds = %7
  %11 = tail call ptr @SSL_get_wbio(ptr noundef nonnull %0) #13
  %12 = tail call i64 @BIO_ctrl(ptr noundef %11, i32 noundef 40, i64 noundef 0, ptr noundef null) #13
  %13 = add i64 %12, -228
  %or.cond12 = icmp ult i64 %13, 1073741597
  br i1 %or.cond12, label %14, label %18

14:                                               ; preds = %10
  %15 = trunc nuw nsw i64 %12 to i32
  %16 = load ptr, ptr %2, align 8, !tbaa !16
  %17 = getelementptr inbounds nuw i8, ptr %16, i64 328
  store i32 %15, ptr %17, align 8, !tbaa !39
  br label %27

18:                                               ; preds = %10
  %19 = load ptr, ptr %2, align 8, !tbaa !16
  %20 = getelementptr inbounds nuw i8, ptr %19, i64 328
  store i32 1472, ptr %20, align 8, !tbaa !39
  %21 = tail call ptr @SSL_get_wbio(ptr noundef nonnull %0) #13
  %22 = load ptr, ptr %2, align 8, !tbaa !16
  %23 = getelementptr inbounds nuw i8, ptr %22, i64 328
  %24 = load i32, ptr %23, align 8, !tbaa !39
  %25 = zext i32 %24 to i64
  %26 = tail call i64 @BIO_ctrl(ptr noundef %21, i32 noundef 42, i64 noundef %25, ptr noundef null) #13
  br label %27

27:                                               ; preds = %14, %18, %7, %1
  ret void
}